; Function Attrs: mustprogress nofree nounwind willreturn memory(read, inaccessiblemem: none) uwtable
define internal fastcc noundef zeroext i1 @_ZN4abslL18MuEquivalentWaiterEPNS_13base_internal14PerThreadSynchES2_(ptr noundef readonly captures(none) %0, ptr noundef readonly captures(none) %1) unnamed_addr #8 {
  %3 = getelementptr inbounds nuw i8, ptr %0, i64 32
  %4 = load ptr, ptr %3, align 8, !tbaa !57
  %5 = load ptr, ptr %4, align 8, !tbaa !58
  %6 = getelementptr inbounds nuw i8, ptr %1, i64 32
  %7 = load ptr, ptr %6, align 8, !tbaa !57
  %8 = load ptr, ptr %7, align 8, !tbaa !58
  %9 = icmp eq ptr %5, %8
  br i1 %9, label %10, label %_ZN4absl9Condition15GuaranteedEqualEPKS0_S2_.exit

10:                                               ; preds = %2
  %11 = getelementptr inbounds nuw i8, ptr %0, i64 24
  %12 = load i32, ptr %11, align 8, !tbaa !65
  %13 = getelementptr inbounds nuw i8, ptr %1, i64 24
  %14 = load i32, ptr %13, align 8, !tbaa !65
  %15 = icmp eq i32 %12, %14
  br i1 %15, label %16, label %_ZN4absl9Condition15GuaranteedEqualEPKS0_S2_.exit

16:                                               ; preds = %10
  %17 = getelementptr inbounds nuw i8, ptr %4, i64 8
  %18 = load ptr, ptr %17, align 8, !tbaa !66
  %19 = getelementptr inbounds nuw i8, ptr %7, i64 8
  %20 = load ptr, ptr %19, align 8, !tbaa !66
  %21 = icmp eq ptr %18, null
  %22 = icmp eq ptr %20, null
  %or.cond.i = or i1 %21, %22
  br i1 %or.cond.i, label %23, label %25

23:                                               ; preds = %16
  %24 = icmp eq ptr %18, %20
  br label %_ZN4absl9Condition15GuaranteedEqualEPKS0_S2_.exit

25:                                               ; preds = %16
  %26 = getelementptr inbounds nuw i8, ptr %18, i64 16
  %27 = load ptr, ptr %26, align 8, !tbaa !67
  %28 = getelementptr inbounds nuw i8, ptr %20, i64 16
  %29 = load ptr, ptr %28, align 8, !tbaa !67
  %30 = icmp eq ptr %27, %29
  br i1 %30, label %31, label %_ZN4absl9Condition15GuaranteedEqualEPKS0_S2_.exit

31:                                               ; preds = %25
  %32 = getelementptr inbounds nuw i8, ptr %18, i64 24
  %33 = load ptr, ptr %32, align 8, !tbaa !69
  %34 = getelementptr inbounds nuw i8, ptr %20, i64 24
  %35 = load ptr, ptr %34, align 8, !tbaa !69
  %36 = icmp eq ptr %33, %35
  br i1 %36, label %37, label %_ZN4absl9Condition15GuaranteedEqualEPKS0_S2_.exit

37:                                               ; preds = %31
  %bcmp.i = tail call i32 @bcmp(ptr noundef nonnull readonly dereferenceable(16) %18, ptr noundef nonnull readonly dereferenceable(16) %20, i64 16)
  %.not.i = icmp eq i32 %bcmp.i, 0
  br label %_ZN4absl9Condition15GuaranteedEqualEPKS0_S2_.exit

_ZN4absl9Condition15GuaranteedEqualEPKS0_S2_.exit: ; preds = %37, %31, %25, %23, %10, %2
  %38 = phi i1 [ false, %10 ], [ false, %2 ], [ %24, %23 ], [ false, %31 ], [ false, %25 ], [ %.not.i, %37 ]
  ret i1 %38
}